; ModuleID = 'bench/graphviz/original/edgelist.ll'
source_filename = "bench/graphviz/original/edgelist.ll"
target datalayout = "e-m:e-p270:32:32-p271:32:32-p272:64:64-i64:64-i128:128-f80:128-n8:16:32:64-S128"
target triple = "x86_64-pc-linux-gnu"

%struct.edgelistitem = type { %struct.dtlink_s_, ptr }
%struct.dtlink_s_ = type { ptr, %union.anon }
%union.anon = type { ptr }

@Dtoset = external local_unnamed_addr global ptr, align 8
@ELDisc = internal global { i32, i32, i32, [4 x i8], ptr, ptr, ptr } { i32 16, i32 8, i32 0, [4 x i8] zeroinitializer, ptr @mkItem, ptr @free, ptr @cmpItem }, align 8
@stderr = external local_unnamed_addr global ptr, align 8
@.str.2 = private unnamed_addr constant [49 x i8] c"out of memory when trying to allocate %zu bytes\0A\00", align 1

; Function Attrs: nounwind uwtable
define ptr @init_edgelist() local_unnamed_addr #0 {
  %1 = load ptr, ptr @Dtoset, align 8, !tbaa !3
  %2 = tail call ptr @dtopen(ptr noundef nonnull @ELDisc, ptr noundef %1) #10
  ret ptr %2
}

; Function Attrs: mustprogress nocallback nofree nosync nounwind willreturn memory(argmem: readwrite)
declare void @llvm.lifetime.start.p0(i64 immarg, ptr captures(none)) #1

declare ptr @dtopen(ptr noundef, ptr noundef) local_unnamed_addr #2

; Function Attrs: mustprogress nocallback nofree nosync nounwind willreturn memory(argmem: readwrite)
declare void @llvm.lifetime.end.p0(i64 immarg, ptr captures(none)) #1

; Function Attrs: nounwind uwtable
define void @free_edgelist(ptr noundef %0) local_unnamed_addr #0 {
  %2 = tail call i32 @dtclose(ptr noundef %0) #10
  ret void
}

declare i32 @dtclose(ptr noundef) local_unnamed_addr #2

; Function Attrs: nounwind uwtable
define void @add_edge(ptr noundef %0, ptr noundef %1) local_unnamed_addr #0 {
  %3 = alloca %struct.edgelistitem, align 8
  call void @llvm.lifetime.start.p0(i64 24, ptr nonnull %3) #10
  %4 = getelementptr inbounds nuw i8, ptr %3, i64 16
  store ptr %1, ptr %4, align 8, !tbaa !7
  %5 = load ptr, ptr %0, align 8, !tbaa !12
  %6 = call ptr %5(ptr noundef nonnull %0, ptr noundef nonnull %3, i32 noundef 1) #10
  call void @llvm.lifetime.end.p0(i64 24, ptr nonnull %3) #10
  ret void
}

; Function Attrs: nounwind uwtable
define void @remove_edge(ptr noundef %0, ptr noundef %1) local_unnamed_addr #0 {
  %3 = alloca %struct.edgelistitem, align 8
  call void @llvm.lifetime.start.p0(i64 24, ptr nonnull %3) #10
  %4 = getelementptr inbounds nuw i8, ptr %3, i64 16
  store ptr %1, ptr %4, align 8, !tbaa !7
  %5 = load ptr, ptr %0, align 8, !tbaa !12
  %6 = call ptr %5(ptr noundef nonnull %0, ptr noundef nonnull %3, i32 noundef 2) #10
  call void @llvm.lifetime.end.p0(i64 24, ptr nonnull %3) #10
  ret void
}

; Function Attrs: nofree nounwind uwtable
define internal noalias noundef ptr @mkItem(ptr noundef readonly captures(none) %0, ptr readnone captures(none) %1) #3 {
  %3 = tail call noalias dereferenceable_or_null(24) ptr @calloc(i64 noundef 1, i64 noundef 24) #11
  %4 = icmp eq ptr %3, null
  br i1 %4, label %5, label %gv_alloc.exit

5:                                                ; preds = %2
  %6 = load ptr, ptr @stderr, align 8, !tbaa !18
  %7 = tail call i32 (ptr, ptr, ...) @fprintf(ptr noundef %6, ptr noundef nonnull @.str.2, i64 noundef 24) #12
  tail call fastcc void @graphviz_exit() #13
  unreachable

gv_alloc.exit:                                    ; preds = %2
  %8 = getelementptr inbounds nuw i8, ptr %0, i64 16
  %9 = load ptr, ptr %8, align 8, !tbaa !7
  %10 = getelementptr inbounds nuw i8, ptr %3, i64 16
  store ptr %9, ptr %10, align 8, !tbaa !7
  ret ptr %3
}

; Function Attrs: mustprogress nounwind willreturn allockind("free") memory(argmem: readwrite, inaccessiblemem: readwrite)
declare void @free(ptr allocptr noundef captures(none)) #4

; Function Attrs: mustprogress nofree norecurse nosync nounwind willreturn memory(argmem: read) uwtable
define internal range(i32 -1, 2) i32 @cmpItem(ptr noundef readonly captures(none) %0, ptr noundef readonly captures(none) %1) #5 {
  %3 = load ptr, ptr %0, align 8, !tbaa !20
  %4 = load ptr, ptr %1, align 8, !tbaa !20
  %5 = icmp ugt ptr %3, %4
  %6 = icmp ult ptr %3, %4
  %. = sext i1 %6 to i32
  %.0 = select i1 %5, i32 1, i32 %.
  ret i32 %.0
}

; Function Attrs: nofree nounwind
declare noundef i32 @fprintf(ptr noundef captures(none), ptr noundef readonly captures(none), ...) local_unnamed_addr #6

; Function Attrs: cold inlinehint nofree noreturn nounwind uwtable
define internal fastcc void @graphviz_exit() unnamed_addr #7 {
  tail call void @exit(i32 noundef 1) #14
  unreachable
}

; Function Attrs: mustprogress nofree nounwind willreturn allockind("alloc,zeroed") allocsize(0,1) memory(inaccessiblemem: readwrite)
declare noalias noundef ptr @calloc(i64 noundef, i64 noundef) local_unnamed_addr #8

; Function Attrs: nofree noreturn nounwind
declare void @exit(i32 noundef) local_unnamed_addr #9


!llvm.module.flags = !{!0, !1, !2}

!0 = !{i32 1, !"wchar_size", i32 4}
!1 = !{i32 8, !"PIC Level", i32 2}
!2 = !{i32 7, !"uwtable", i32 2}
!3 = !{!4, !4, i64 0}
!4 = !{!"any pointer", !5, i64 0}
!5 = !{!"omnipotent char", !6, i64 0}
!6 = !{!"Simple C/C++ TBAA"}
!7 = !{!8, !11, i64 16}
!8 = !{!"edgelistitem", !9, i64 0, !11, i64 16}
!9 = !{!"dtlink_s_", !10, i64 0, !5, i64 8}
!10 = !{!"p1 _ZTS9dtlink_s_", !4, i64 0}
!11 = !{!"p1 _ZTS8Agedge_s", !4, i64 0}
!12 = !{!13, !4, i64 0}
!13 = !{!"dt_s_", !4, i64 0, !14, i64 8, !15, i64 16, !4, i64 56, !16, i64 64, !17, i64 72, !17, i64 80, !4, i64 88}
!14 = !{!"p1 _ZTS9dtdisc_s_", !4, i64 0}
!15 = !{!"", !16, i64 0, !10, i64 8, !5, i64 16, !16, i64 24, !16, i64 28, !16, i64 32}
!16 = !{!"int", !5, i64 0}
!17 = !{!"p1 _ZTS5dt_s_", !4, i64 0}
!18 = !{!19, !19, i64 0}
!19 = !{!"p1 _ZTS8_IO_FILE", !4, i64 0}
!20 = !{!11, !11, i64 0}
